target datalayout = "e-m:e-p270:32:32-p271:32:32-p272:64:64-i64:64-i128:128-f80:128-n8:16:32:64-S128"
target triple = "x86_64-pc-linux-gnu"

%struct.switch_record_t = type { i32, i32, ptr, ptr, ptr, i16, i16, i16, ptr, ptr, ptr, ptr }

@switch_record_cnt = external global i32, align 4
@switch_record_table = external global ptr, align 8

; Function Attrs: nounwind uwtable
define dso_local ptr @topology_p_get_bitmap(ptr noundef %0) #0 {
  %2 = alloca ptr, align 8
  %3 = alloca ptr, align 8
  %4 = alloca i32, align 4
  %5 = alloca i32, align 4
  store ptr %0, ptr %3, align 8
  call void @llvm.lifetime.start.p0(i64 4, ptr %4) #10
  store i32 0, ptr %4, align 4
  br label %6

6:                                                ; preds = %29, %1
  %7 = load i32, ptr %4, align 4
  %8 = load i32, ptr @switch_record_cnt, align 4
  %9 = icmp slt i32 %7, %8
  br i1 %9, label %11, label %10

10:                                               ; preds = %6
  store i32 2, ptr %5, align 4
  br label %32

11:                                               ; preds = %6
  %12 = load ptr, ptr @switch_record_table, align 8
  %13 = load i32, ptr %4, align 4
  %14 = sext i32 %13 to i64
  %15 = getelementptr inbounds %struct.switch_record_t, ptr %12, i64 %14
  %16 = getelementptr inbounds nuw %struct.switch_record_t, ptr %15, i32 0, i32 2
  %17 = load ptr, ptr %16, align 8
  %18 = load ptr, ptr %3, align 8
  %19 = call i32 @slurm_xstrcmp(ptr noundef %17, ptr noundef %18)
  %20 = icmp ne i32 %19, 0
  br i1 %20, label %28, label %21

21:                                               ; preds = %11
  %22 = load ptr, ptr @switch_record_table, align 8
  %23 = load i32, ptr %4, align 4
  %24 = sext i32 %23 to i64
  %25 = getelementptr inbounds %struct.switch_record_t, ptr %22, i64 %24
  %26 = getelementptr inbounds nuw %struct.switch_record_t, ptr %25, i32 0, i32 3
  %27 = load ptr, ptr %26, align 8
  store ptr %27, ptr %2, align 8
  store i32 1, ptr %5, align 4
  br label %32

28:                                               ; preds = %11
  br label %29

29:                                               ; preds = %28
  %30 = load i32, ptr %4, align 4
  %31 = add nsw i32 %30, 1
  store i32 %31, ptr %4, align 4
  br label %6, !llvm.loop !11

32:                                               ; preds = %21, %10
  call void @llvm.lifetime.end.p0(i64 4, ptr %4) #10
  %33 = load i32, ptr %5, align 4
  switch i32 %33, label %37 [
    i32 2, label %34
    i32 1, label %35
  ]

34:                                               ; preds = %32
  store ptr null, ptr %2, align 8
  br label %35

35:                                               ; preds = %34, %32
  %36 = load ptr, ptr %2, align 8
  ret ptr %36

37:                                               ; preds = %32
  unreachable
}