; Function Attrs: nounwind uwtable
define dso_local ptr @topology_p_get_bitmap(ptr noundef %0) local_unnamed_addr #0 {
  %2 = load i32, ptr @switch_record_cnt, align 4
  %.not89 = icmp sgt i32 %2, 0
  br i1 %.not89, label %.lr.ph, label %.loopexit

3:                                                ; preds = %.lr.ph
  %indvars.iv.next = add nuw nsw i64 %indvars.iv, 1
  %4 = load i32, ptr @switch_record_cnt, align 4
  %5 = sext i32 %4 to i64
  %.not8 = icmp slt i64 %indvars.iv.next, %5
  br i1 %.not8, label %.lr.ph, label %.loopexit, !llvm.loop !11

.lr.ph:                                           ; preds = %1, %3
  %indvars.iv = phi i64 [ %indvars.iv.next, %3 ], [ 0, %1 ]
  %6 = load ptr, ptr @switch_record_table, align 8
  %7 = getelementptr inbounds nuw %struct.switch_record_t, ptr %6, i64 %indvars.iv, i32 2
  %8 = load ptr, ptr %7, align 8
  %9 = tail call i32 @slurm_xstrcmp(ptr noundef %8, ptr noundef %0) #13
  %.not = icmp eq i32 %9, 0
  br i1 %.not, label %10, label %3

10:                                               ; preds = %.lr.ph
  %11 = load ptr, ptr @switch_record_table, align 8
  %12 = getelementptr inbounds nuw %struct.switch_record_t, ptr %11, i64 %indvars.iv, i32 3
  %13 = load ptr, ptr %12, align 8
  br label %.loopexit

.loopexit:                                        ; preds = %3, %1, %10
  %spec.select = phi ptr [ %13, %10 ], [ null, %1 ], [ null, %3 ]
  ret ptr %spec.select
}